; Function Attrs: mustprogress nounwind uwtable
define void @_ZN5ezSAT5clearEv(ptr noundef nonnull align 8 captures(none) dereferenceable(284) initializes((160, 161), (164, 172)) %0) unnamed_addr #2 align 2 personality ptr @__gxx_personality_v0 {
  %2 = getelementptr inbounds nuw i8, ptr %0, i64 160
  store i8 0, ptr %2, align 8, !tbaa !57
  %3 = getelementptr inbounds nuw i8, ptr %0, i64 164
  store i32 0, ptr %3, align 4, !tbaa !58
  %4 = getelementptr inbounds nuw i8, ptr %0, i64 168
  store i32 0, ptr %4, align 8, !tbaa !59
  %5 = getelementptr inbounds nuw i8, ptr %0, i64 176
  %6 = load ptr, ptr %5, align 8, !tbaa !69
  %7 = getelementptr inbounds nuw i8, ptr %0, i64 184
  %8 = load ptr, ptr %7, align 8, !tbaa !90
  %.not.i.i = icmp eq ptr %8, %6
  br i1 %.not.i.i, label %_ZNSt6vectorIiSaIiEE5clearEv.exit, label %9

9:                                                ; preds = %1
  store ptr %6, ptr %7, align 8, !tbaa !90
  br label %_ZNSt6vectorIiSaIiEE5clearEv.exit

_ZNSt6vectorIiSaIiEE5clearEv.exit:                ; preds = %1, %9
  %10 = getelementptr inbounds nuw i8, ptr %0, i64 200
  %11 = load ptr, ptr %10, align 8, !tbaa !69
  %12 = getelementptr inbounds nuw i8, ptr %0, i64 208
  %13 = load ptr, ptr %12, align 8, !tbaa !90
  %.not.i.i1 = icmp eq ptr %13, %11
  br i1 %.not.i.i1, label %_ZNSt6vectorIiSaIiEE5clearEv.exit2, label %14

14:                                               ; preds = %_ZNSt6vectorIiSaIiEE5clearEv.exit
  store ptr %11, ptr %12, align 8, !tbaa !90
  br label %_ZNSt6vectorIiSaIiEE5clearEv.exit2

_ZNSt6vectorIiSaIiEE5clearEv.exit2:               ; preds = %_ZNSt6vectorIiSaIiEE5clearEv.exit, %14
  %15 = getelementptr inbounds nuw i8, ptr %0, i64 224
  %16 = load ptr, ptr %15, align 8, !tbaa !79
  %17 = getelementptr inbounds nuw i8, ptr %0, i64 232
  %18 = load ptr, ptr %17, align 8, !tbaa !80
  %.not.i.i3 = icmp eq ptr %18, %16
  br i1 %.not.i.i3, label %_ZNSt6vectorIS_IiSaIiEESaIS1_EE5clearEv.exit, label %.lr.ph.i.i.i.i.i

.lr.ph.i.i.i.i.i:                                 ; preds = %_ZNSt6vectorIiSaIiEE5clearEv.exit2, %_ZSt8_DestroyISt6vectorIiSaIiEEEvPT_.exit.i.i.i.i.i
  %.05.i.i.i.i.i = phi ptr [ %26, %_ZSt8_DestroyISt6vectorIiSaIiEEEvPT_.exit.i.i.i.i.i ], [ %16, %_ZNSt6vectorIiSaIiEE5clearEv.exit2 ]
  %19 = load ptr, ptr %.05.i.i.i.i.i, align 8, !tbaa !69
  %.not.i.i.i.i.i.i.i.i.i = icmp eq ptr %19, null
  br i1 %.not.i.i.i.i.i.i.i.i.i, label %_ZSt8_DestroyISt6vectorIiSaIiEEEvPT_.exit.i.i.i.i.i, label %20

20:                                               ; preds = %.lr.ph.i.i.i.i.i
  %21 = getelementptr inbounds nuw i8, ptr %.05.i.i.i.i.i, i64 16
  %22 = load ptr, ptr %21, align 8, !tbaa !70
  %23 = ptrtoint ptr %22 to i64
  %24 = ptrtoint ptr %19 to i64
  %25 = sub i64 %23, %24
  tail call void @_ZdlPvm(ptr noundef nonnull %19, i64 noundef %25) #31
  br label %_ZSt8_DestroyISt6vectorIiSaIiEEEvPT_.exit.i.i.i.i.i

_ZSt8_DestroyISt6vectorIiSaIiEEEvPT_.exit.i.i.i.i.i: ; preds = %20, %.lr.ph.i.i.i.i.i
  %26 = getelementptr inbounds nuw i8, ptr %.05.i.i.i.i.i, i64 24
  %.not.i.i.i.i.i = icmp eq ptr %26, %18
  br i1 %.not.i.i.i.i.i, label %_ZSt8_DestroyIPSt6vectorIiSaIiEES2_EvT_S4_RSaIT0_E.exit.i.i, label %.lr.ph.i.i.i.i.i, !llvm.loop !81

_ZSt8_DestroyIPSt6vectorIiSaIiEES2_EvT_S4_RSaIT0_E.exit.i.i: ; preds = %_ZSt8_DestroyISt6vectorIiSaIiEEEvPT_.exit.i.i.i.i.i
  store ptr %16, ptr %17, align 8, !tbaa !80
  br label %_ZNSt6vectorIS_IiSaIiEESaIS1_EE5clearEv.exit

_ZNSt6vectorIS_IiSaIiEESaIS1_EE5clearEv.exit:     ; preds = %_ZNSt6vectorIiSaIiEE5clearEv.exit2, %_ZSt8_DestroyIPSt6vectorIiSaIiEES2_EvT_S4_RSaIT0_E.exit.i.i
  ret void
}